target datalayout = "e-m:e-p270:32:32-p271:32:32-p272:64:64-i64:64-i128:128-f80:128-n8:16:32:64-S128"
target triple = "x86_64-pc-linux-gnu"

%"class.clang::Decl.base" = type <{ ptr, %"class.llvm::PointerIntPair.337", %"class.llvm::PointerUnion", %"class.clang::SourceLocation", i32, i8 }>
%"class.llvm::PointerIntPair.337" = type { %"struct.llvm::detail::PunnedPointer.338" }
%"struct.llvm::detail::PunnedPointer.338" = type { [8 x i8] }
%"class.llvm::PointerUnion" = type { %"class.llvm::pointer_union_detail::PointerUnionMembers" }
%"class.llvm::pointer_union_detail::PointerUnionMembers" = type { %"class.llvm::pointer_union_detail::PointerUnionMembers.339" }
%"class.llvm::pointer_union_detail::PointerUnionMembers.339" = type { %"class.llvm::pointer_union_detail::PointerUnionMembers.340" }
%"class.llvm::pointer_union_detail::PointerUnionMembers.340" = type { %"class.llvm::PointerIntPair.341" }
%"class.llvm::PointerIntPair.341" = type { %"struct.llvm::detail::PunnedPointer.342" }
%"struct.llvm::detail::PunnedPointer.342" = type { [8 x i8] }
%"class.clang::SourceLocation" = type { i32 }
%"class.clang::NamedDecl" = type { %"class.clang::Decl.base", %"class.clang::DeclarationName" }
%"class.clang::DeclarationName" = type { i64 }
%"class.clang::DeclarationNameLoc" = type { %union.anon.416 }
%union.anon.416 = type { %"struct.clang::DeclarationNameLoc::NT" }
%"struct.clang::DeclarationNameLoc::NT" = type { ptr }
%"struct.clang::DeclarationNameInfo" = type { %"class.clang::DeclarationName", %"class.clang::SourceLocation", %"class.clang::DeclarationNameLoc" }
%"class.clang::NestedNameSpecifierLoc" = type { ptr, ptr }
%"class.clang::UsingDecl" = type { %"class.clang::BaseUsingDecl", %"class.clang::SourceLocation", %"class.clang::NestedNameSpecifierLoc", %"class.clang::DeclarationNameLoc" }
%"class.clang::BaseUsingDecl" = type { %"class.clang::NamedDecl", %"class.llvm::PointerIntPair.463" }
%"class.llvm::PointerIntPair.463" = type { %"struct.llvm::detail::PunnedPointer.464" }
%"struct.llvm::detail::PunnedPointer.464" = type { [8 x i8] }

@_ZTVN5clang9NamedDeclE = external unnamed_addr constant { [15 x ptr] }, align 8

; Function Attrs: mustprogress nounwind uwtable
define linkonce_odr hidden noundef ptr @_ZN4llvm21PointerLikeTypeTraitsIPN5clang15UsingShadowDeclEE16getAsVoidPointerES3_(ptr noundef %0) #0 comdat align 2 {
  %2 = alloca ptr, align 8
  store ptr %0, ptr %2, align 8
  %3 = load ptr, ptr %2, align 8
  ret ptr %3
}

; Function Attrs: mustprogress nounwind uwtable
define linkonce_odr hidden noundef i64 @_ZNK4llvm6detail13PunnedPointerIPN5clang15UsingShadowDeclEE5asIntEv(ptr noundef nonnull align 8 dereferenceable(8) %0) #0 comdat align 2 {
  %2 = alloca ptr, align 8
  %3 = alloca i64, align 8
  store ptr %0, ptr %2, align 8
  %4 = load ptr, ptr %2, align 8
  store i64 0, ptr %3, align 8
  %5 = getelementptr inbounds nuw %"struct.llvm::detail::PunnedPointer.464", ptr %4, i32 0, i32 0
  %6 = getelementptr inbounds [8 x i8], ptr %5, i64 0, i64 0
  call void @llvm.memcpy.p0.p0.i64(ptr align 8 %3, ptr align 8 %6, i64 8, i1 false)
  %7 = load i64, ptr %3, align 8
  ret i64 %7
}

; Function Attrs: mustprogress nounwind uwtable
define linkonce_odr hidden noundef i64 @_ZN4llvm18PointerIntPairInfoIPN5clang15UsingShadowDeclELj1ENS_21PointerLikeTypeTraitsIS3_EEE13updatePointerElS3_(i64 noundef %0, ptr noundef %1) #0 comdat align 2 {
  %3 = alloca i64, align 8
  %4 = alloca ptr, align 8
  %5 = alloca i64, align 8
  store i64 %0, ptr %3, align 8
  store ptr %1, ptr %4, align 8
  %6 = load ptr, ptr %4, align 8
  %7 = call noundef ptr @_ZN4llvm21PointerLikeTypeTraitsIPN5clang15UsingShadowDeclEE16getAsVoidPointerES3_(ptr noundef %6)
  %8 = ptrtoint ptr %7 to i64
  store i64 %8, ptr %5, align 8
  %9 = load i64, ptr %5, align 8
  %10 = load i64, ptr %3, align 8
  %11 = and i64 %10, 7
  %12 = or i64 %9, %11
  ret i64 %12
}

; Function Attrs: mustprogress nounwind uwtable
define linkonce_odr hidden noundef nonnull align 8 dereferenceable(8) ptr @_ZN4llvm6detail13PunnedPointerIPN5clang15UsingShadowDeclEEaSEl(ptr noundef nonnull align 8 dereferenceable(8) %0, i64 noundef %1) #0 comdat align 2 {
  %3 = alloca ptr, align 8
  %4 = alloca i64, align 8
  store ptr %0, ptr %3, align 8
  store i64 %1, ptr %4, align 8
  %5 = load ptr, ptr %3, align 8
  %6 = getelementptr inbounds nuw %"struct.llvm::detail::PunnedPointer.464", ptr %5, i32 0, i32 0
  %7 = getelementptr inbounds [8 x i8], ptr %6, i64 0, i64 0
  call void @llvm.memcpy.p0.p0.i64(ptr align 8 %7, ptr align 8 %4, i64 8, i1 false)
  ret ptr %5
}

; Function Attrs: mustprogress nounwind uwtable
define linkonce_odr hidden noundef i64 @_ZN4llvm18PointerIntPairInfoIPN5clang15UsingShadowDeclELj1ENS_21PointerLikeTypeTraitsIS3_EEE9updateIntEll(i64 noundef %0, i64 noundef %1) #0 comdat align 2 {
  %3 = alloca i64, align 8
  %4 = alloca i64, align 8
  %5 = alloca i64, align 8
  store i64 %0, ptr %3, align 8
  store i64 %1, ptr %4, align 8
  %6 = load i64, ptr %4, align 8
  store i64 %6, ptr %5, align 8
  %7 = load i64, ptr %3, align 8
  %8 = and i64 %7, -5
  %9 = load i64, ptr %5, align 8
  %10 = shl i64 %9, 2
  %11 = or i64 %8, %10
  ret i64 %11
}

; Function Attrs: mustprogress nounwind uwtable
define linkonce_odr hidden noundef i64 @_ZNK4llvm6detail13PunnedPointerIPN5clang15UsingShadowDeclEEcvlEv(ptr noundef nonnull align 8 dereferenceable(8) %0) #0 comdat align 2 {
  %2 = alloca ptr, align 8
  store ptr %0, ptr %2, align 8
  %3 = load ptr, ptr %2, align 8
  %4 = call noundef i64 @_ZNK4llvm6detail13PunnedPointerIPN5clang15UsingShadowDeclEE5asIntEv(ptr noundef nonnull align 8 dereferenceable(8) %3)
  ret i64 %4
}

; Function Attrs: mustprogress nounwind uwtable
define linkonce_odr hidden void @_ZNR4llvm14PointerIntPairIPN5clang15UsingShadowDeclELj1EbNS_21PointerLikeTypeTraitsIS3_EENS_18PointerIntPairInfoIS3_Lj1ES5_EEE16setPointerAndIntES3_b(ptr noundef nonnull align 8 dereferenceable(8) %0, ptr noundef %1, i1 noundef zeroext %2) #0 comdat align 2 {
  %4 = alloca ptr, align 8
  %5 = alloca ptr, align 8
  %6 = alloca i8, align 1
  store ptr %0, ptr %4, align 8
  store ptr %1, ptr %5, align 8
  %7 = zext i1 %2 to i8
  store i8 %7, ptr %6, align 1
  %8 = load ptr, ptr %4, align 8
  %9 = load ptr, ptr %5, align 8
  %10 = call noundef i64 @_ZN4llvm18PointerIntPairInfoIPN5clang15UsingShadowDeclELj1ENS_21PointerLikeTypeTraitsIS3_EEE13updatePointerElS3_(i64 noundef 0, ptr noundef %9)
  %11 = load i8, ptr %6, align 1
  %12 = trunc i8 %11 to i1
  %13 = zext i1 %12 to i64
  %14 = call noundef i64 @_ZN4llvm18PointerIntPairInfoIPN5clang15UsingShadowDeclELj1ENS_21PointerLikeTypeTraitsIS3_EEE9updateIntEll(i64 noundef %10, i64 noundef %13)
  %15 = getelementptr inbounds nuw %"class.llvm::PointerIntPair.463", ptr %8, i32 0, i32 0
  %16 = call noundef nonnull align 8 dereferenceable(8) ptr @_ZN4llvm6detail13PunnedPointerIPN5clang15UsingShadowDeclEEaSEl(ptr noundef nonnull align 8 dereferenceable(8) %15, i64 noundef %14)
  ret void
}

; Function Attrs: mustprogress nounwind uwtable
define linkonce_odr hidden void @_ZN4llvm6detail13PunnedPointerIPN5clang15UsingShadowDeclEEC2El(ptr noundef nonnull align 8 dereferenceable(8) %0, i64 noundef %1) unnamed_addr #0 comdat align 2 {
  %3 = alloca ptr, align 8
  %4 = alloca i64, align 8
  store ptr %0, ptr %3, align 8
  store i64 %1, ptr %4, align 8
  %5 = load ptr, ptr %3, align 8
  %6 = load i64, ptr %4, align 8
  %7 = call noundef nonnull align 8 dereferenceable(8) ptr @_ZN4llvm6detail13PunnedPointerIPN5clang15UsingShadowDeclEEaSEl(ptr noundef nonnull align 8 dereferenceable(8) %5, i64 noundef %6)
  ret void
}

; Function Attrs: mustprogress nounwind uwtable
define linkonce_odr hidden void @_ZNR4llvm14PointerIntPairIPN5clang15UsingShadowDeclELj1EbNS_21PointerLikeTypeTraitsIS3_EENS_18PointerIntPairInfoIS3_Lj1ES5_EEE6setIntEb(ptr noundef nonnull align 8 dereferenceable(8) %0, i1 noundef zeroext %1) #0 comdat align 2 {
  %3 = alloca ptr, align 8
  %4 = alloca i8, align 1
  store ptr %0, ptr %3, align 8
  %5 = zext i1 %1 to i8
  store i8 %5, ptr %4, align 1
  %6 = load ptr, ptr %3, align 8
  %7 = getelementptr inbounds nuw %"class.llvm::PointerIntPair.463", ptr %6, i32 0, i32 0
  %8 = call noundef i64 @_ZNK4llvm6detail13PunnedPointerIPN5clang15UsingShadowDeclEEcvlEv(ptr noundef nonnull align 8 dereferenceable(8) %7)
  %9 = load i8, ptr %4, align 1
  %10 = trunc i8 %9 to i1
  %11 = zext i1 %10 to i64
  %12 = call noundef i64 @_ZN4llvm18PointerIntPairInfoIPN5clang15UsingShadowDeclELj1ENS_21PointerLikeTypeTraitsIS3_EEE9updateIntEll(i64 noundef %8, i64 noundef %11)
  %13 = getelementptr inbounds nuw %"class.llvm::PointerIntPair.463", ptr %6, i32 0, i32 0
  %14 = call noundef nonnull align 8 dereferenceable(8) ptr @_ZN4llvm6detail13PunnedPointerIPN5clang15UsingShadowDeclEEaSEl(ptr noundef nonnull align 8 dereferenceable(8) %13, i64 noundef %12)
  ret void
}

; Function Attrs: mustprogress nounwind uwtable
define linkonce_odr hidden void @_ZN4llvm14PointerIntPairIPN5clang15UsingShadowDeclELj1EbNS_21PointerLikeTypeTraitsIS3_EENS_18PointerIntPairInfoIS3_Lj1ES5_EEEC2ES3_b(ptr noundef nonnull align 8 dereferenceable(8) %0, ptr noundef %1, i1 noundef zeroext %2) unnamed_addr #0 comdat align 2 {
  %4 = alloca ptr, align 8
  %5 = alloca ptr, align 8
  %6 = alloca i8, align 1
  store ptr %0, ptr %4, align 8
  store ptr %1, ptr %5, align 8
  %7 = zext i1 %2 to i8
  store i8 %7, ptr %6, align 1
  %8 = load ptr, ptr %4, align 8
  %9 = getelementptr inbounds nuw %"class.llvm::PointerIntPair.463", ptr %8, i32 0, i32 0
  call void @_ZN4llvm6detail13PunnedPointerIPN5clang15UsingShadowDeclEEC2El(ptr noundef nonnull align 8 dereferenceable(8) %9, i64 noundef 0)
  %10 = load ptr, ptr %5, align 8
  %11 = load i8, ptr %6, align 1
  %12 = trunc i8 %11 to i1
  call void @_ZNR4llvm14PointerIntPairIPN5clang15UsingShadowDeclELj1EbNS_21PointerLikeTypeTraitsIS3_EENS_18PointerIntPairInfoIS3_Lj1ES5_EEE16setPointerAndIntES3_b(ptr noundef nonnull align 8 dereferenceable(8) %8, ptr noundef %10, i1 noundef zeroext %12)
  ret void
}

; Function Attrs: mustprogress nounwind uwtable
define linkonce_odr hidden void @_ZN5clang9NamedDeclC2ENS_4Decl4KindEPNS_11DeclContextENS_14SourceLocationENS_15DeclarationNameE(ptr noundef nonnull align 8 dereferenceable(48) %0, i32 noundef %1, ptr noundef %2, i32 %3, i64 %4) unnamed_addr #0 comdat align 2 {
  %6 = alloca %"class.clang::SourceLocation", align 4
  %7 = alloca %"class.clang::DeclarationName", align 8
  %8 = alloca ptr, align 8
  %9 = alloca i32, align 4
  %10 = alloca ptr, align 8
  %11 = alloca %"class.clang::SourceLocation", align 4
  %12 = getelementptr inbounds nuw %"class.clang::SourceLocation", ptr %6, i32 0, i32 0
  store i32 %3, ptr %12, align 4
  %13 = getelementptr inbounds nuw %"class.clang::DeclarationName", ptr %7, i32 0, i32 0
  store i64 %4, ptr %13, align 8
  store ptr %0, ptr %8, align 8
  store i32 %1, ptr %9, align 4
  store ptr %2, ptr %10, align 8
  %14 = load ptr, ptr %8, align 8
  %15 = load i32, ptr %9, align 4
  %16 = load ptr, ptr %10, align 8
  call void @llvm.memcpy.p0.p0.i64(ptr align 4 %11, ptr align 4 %6, i64 4, i1 false)
  %17 = getelementptr inbounds nuw %"class.clang::SourceLocation", ptr %11, i32 0, i32 0
  %18 = load i32, ptr %17, align 4
  call void @_ZN5clang4DeclC2ENS0_4KindEPNS_11DeclContextENS_14SourceLocationE(ptr noundef nonnull align 8 dereferenceable(33) %14, i32 noundef %15, ptr noundef %16, i32 %18)
  store ptr getelementptr inbounds inrange(-16, 104) ({ [15 x ptr] }, ptr @_ZTVN5clang9NamedDeclE, i32 0, i32 0, i32 2), ptr %14, align 8
  %19 = getelementptr inbounds nuw %"class.clang::NamedDecl", ptr %14, i32 0, i32 1
  call void @llvm.memcpy.p0.p0.i64(ptr align 8 %19, ptr align 8 %7, i64 8, i1 false)
  ret void
}

; Function Attrs: mustprogress nounwind uwtable
define linkonce_odr hidden void @_ZN5clang13BaseUsingDecl13setShadowFlagEb(ptr noundef nonnull align 8 dereferenceable(56) %0, i1 noundef zeroext %1) #0 comdat align 2 {
  %3 = alloca ptr, align 8
  %4 = alloca i8, align 1
  store ptr %0, ptr %3, align 8
  %5 = zext i1 %1 to i8
  store i8 %5, ptr %4, align 1
  %6 = load ptr, ptr %3, align 8
  %7 = getelementptr inbounds nuw %"class.clang::BaseUsingDecl", ptr %6, i32 0, i32 1
  %8 = load i8, ptr %4, align 1
  %9 = trunc i8 %8 to i1
  call void @_ZNR4llvm14PointerIntPairIPN5clang15UsingShadowDeclELj1EbNS_21PointerLikeTypeTraitsIS3_EENS_18PointerIntPairInfoIS3_Lj1ES5_EEE6setIntEb(ptr noundef nonnull align 8 dereferenceable(8) %7, i1 noundef zeroext %9)
  ret void
}

; Function Attrs: mustprogress nounwind uwtable
define linkonce_odr hidden noundef nonnull align 8 dereferenceable(8) ptr @_ZNK5clang19DeclarationNameInfo7getInfoEv(ptr noundef nonnull align 8 dereferenceable(24) %0) #0 comdat align 2 {
  %2 = alloca ptr, align 8
  store ptr %0, ptr %2, align 8
  %3 = load ptr, ptr %2, align 8
  %4 = getelementptr inbounds nuw %"struct.clang::DeclarationNameInfo", ptr %3, i32 0, i32 2
  ret ptr %4
}

; Function Attrs: mustprogress nounwind uwtable
define linkonce_odr hidden void @_ZN5clang13BaseUsingDeclC2ENS_4Decl4KindEPNS_11DeclContextENS_14SourceLocationENS_15DeclarationNameE(ptr noundef nonnull align 8 dereferenceable(56) %0, i32 noundef %1, ptr noundef %2, i32 %3, i64 %4) unnamed_addr #0 comdat align 2 {
  %6 = alloca %"class.clang::SourceLocation", align 4
  %7 = alloca %"class.clang::DeclarationName", align 8
  %8 = alloca ptr, align 8
  %9 = alloca i32, align 4
  %10 = alloca ptr, align 8
  %11 = alloca %"class.clang::SourceLocation", align 4
  %12 = alloca %"class.clang::DeclarationName", align 8
  %13 = getelementptr inbounds nuw %"class.clang::SourceLocation", ptr %6, i32 0, i32 0
  store i32 %3, ptr %13, align 4
  %14 = getelementptr inbounds nuw %"class.clang::DeclarationName", ptr %7, i32 0, i32 0
  store i64 %4, ptr %14, align 8
  store ptr %0, ptr %8, align 8
  store i32 %1, ptr %9, align 4
  store ptr %2, ptr %10, align 8
  %15 = load ptr, ptr %8, align 8
  %16 = load i32, ptr %9, align 4
  %17 = load ptr, ptr %10, align 8
  call void @llvm.memcpy.p0.p0.i64(ptr align 4 %11, ptr align 4 %6, i64 4, i1 false)
  call void @llvm.memcpy.p0.p0.i64(ptr align 8 %12, ptr align 8 %7, i64 8, i1 false)
  %18 = getelementptr inbounds nuw %"class.clang::SourceLocation", ptr %11, i32 0, i32 0
  %19 = load i32, ptr %18, align 4
  %20 = getelementptr inbounds nuw %"class.clang::DeclarationName", ptr %12, i32 0, i32 0
  %21 = load i64, ptr %20, align 8
  call void @_ZN5clang9NamedDeclC2ENS_4Decl4KindEPNS_11DeclContextENS_14SourceLocationENS_15DeclarationNameE(ptr noundef nonnull align 8 dereferenceable(48) %15, i32 noundef %16, ptr noundef %17, i32 %19, i64 %21)
  store ptr getelementptr inbounds inrange(-16, 104) ({ [15 x ptr] }, ptr @_ZTVN5clang13BaseUsingDeclE, i32 0, i32 0, i32 2), ptr %15, align 8
  %22 = getelementptr inbounds nuw %"class.clang::BaseUsingDecl", ptr %15, i32 0, i32 1
  call void @_ZN4llvm14PointerIntPairIPN5clang15UsingShadowDeclELj1EbNS_21PointerLikeTypeTraitsIS3_EENS_18PointerIntPairInfoIS3_Lj1ES5_EEEC2ES3_b(ptr noundef nonnull align 8 dereferenceable(8) %22, ptr noundef null, i1 noundef zeroext false)
  ret void
}

; Function Attrs: mustprogress nounwind uwtable
define linkonce_odr hidden i64 @_ZNK5clang19DeclarationNameInfo7getNameEv(ptr noundef nonnull align 8 dereferenceable(24) %0) #0 comdat align 2 {
  %2 = alloca %"class.clang::DeclarationName", align 8
  %3 = alloca ptr, align 8
  store ptr %0, ptr %3, align 8
  %4 = load ptr, ptr %3, align 8
  %5 = getelementptr inbounds nuw %"struct.clang::DeclarationNameInfo", ptr %4, i32 0, i32 0
  call void @llvm.memcpy.p0.p0.i64(ptr align 8 %2, ptr align 8 %5, i64 8, i1 false)
  %6 = getelementptr inbounds nuw %"class.clang::DeclarationName", ptr %2, i32 0, i32 0
  %7 = load i64, ptr %6, align 8
  ret i64 %7
}

; Function Attrs: mustprogress nounwind uwtable
define linkonce_odr hidden i32 @_ZNK5clang19DeclarationNameInfo6getLocEv(ptr noundef nonnull align 8 dereferenceable(24) %0) #0 comdat align 2 {
  %2 = alloca %"class.clang::SourceLocation", align 4
  %3 = alloca ptr, align 8
  store ptr %0, ptr %3, align 8
  %4 = load ptr, ptr %3, align 8
  %5 = getelementptr inbounds nuw %"struct.clang::DeclarationNameInfo", ptr %4, i32 0, i32 1
  call void @llvm.memcpy.p0.p0.i64(ptr align 4 %2, ptr align 8 %5, i64 4, i1 false)
  %6 = getelementptr inbounds nuw %"class.clang::SourceLocation", ptr %2, i32 0, i32 0
  %7 = load i32, ptr %6, align 4
  ret i32 %7
}

; Function Attrs: mustprogress nounwind uwtable
define linkonce_odr hidden void @_ZN5clang9UsingDeclC2EPNS_11DeclContextENS_14SourceLocationENS_22NestedNameSpecifierLocERKNS_19DeclarationNameInfoEb(ptr noundef nonnull align 8 dereferenceable(88) %0, ptr noundef %1, i32 %2, ptr %3, ptr %4, ptr noundef nonnull align 8 dereferenceable(24) %5, i1 noundef zeroext %6) unnamed_addr #0 comdat align 2 {
  %8 = alloca %"class.clang::SourceLocation", align 4
  %9 = alloca %"class.clang::NestedNameSpecifierLoc", align 8
  %10 = alloca ptr, align 8
  %11 = alloca ptr, align 8
  %12 = alloca ptr, align 8
  %13 = alloca i8, align 1
  %14 = alloca %"class.clang::SourceLocation", align 4
  %15 = alloca %"class.clang::DeclarationName", align 8
  %16 = getelementptr inbounds nuw %"class.clang::SourceLocation", ptr %8, i32 0, i32 0
  store i32 %2, ptr %16, align 4
  %17 = getelementptr inbounds nuw { ptr, ptr }, ptr %9, i32 0, i32 0
  store ptr %3, ptr %17, align 8
  %18 = getelementptr inbounds nuw { ptr, ptr }, ptr %9, i32 0, i32 1
  store ptr %4, ptr %18, align 8
  store ptr %0, ptr %10, align 8
  store ptr %1, ptr %11, align 8
  store ptr %5, ptr %12, align 8
  %19 = zext i1 %6 to i8
  store i8 %19, ptr %13, align 1
  %20 = load ptr, ptr %10, align 8
  %21 = load ptr, ptr %11, align 8
  %22 = load ptr, ptr %12, align 8
  %23 = call i32 @_ZNK5clang19DeclarationNameInfo6getLocEv(ptr noundef nonnull align 8 dereferenceable(24) %22)
  %24 = getelementptr inbounds nuw %"class.clang::SourceLocation", ptr %14, i32 0, i32 0
  store i32 %23, ptr %24, align 4
  %25 = load ptr, ptr %12, align 8
  %26 = call i64 @_ZNK5clang19DeclarationNameInfo7getNameEv(ptr noundef nonnull align 8 dereferenceable(24) %25)
  %27 = getelementptr inbounds nuw %"class.clang::DeclarationName", ptr %15, i32 0, i32 0
  store i64 %26, ptr %27, align 8
  %28 = getelementptr inbounds nuw %"class.clang::SourceLocation", ptr %14, i32 0, i32 0
  %29 = load i32, ptr %28, align 4
  %30 = getelementptr inbounds nuw %"class.clang::DeclarationName", ptr %15, i32 0, i32 0
  %31 = load i64, ptr %30, align 8
  call void @_ZN5clang13BaseUsingDeclC2ENS_4Decl4KindEPNS_11DeclContextENS_14SourceLocationENS_15DeclarationNameE(ptr noundef nonnull align 8 dereferenceable(56) %20, i32 noundef 77, ptr noundef %21, i32 %29, i64 %31)
  store ptr getelementptr inbounds inrange(-16, 104) ({ [15 x ptr] }, ptr @_ZTVN5clang9UsingDeclE, i32 0, i32 0, i32 2), ptr %20, align 8
  %32 = getelementptr inbounds nuw %"class.clang::UsingDecl", ptr %20, i32 0, i32 1
  call void @llvm.memcpy.p0.p0.i64(ptr align 8 %32, ptr align 4 %8, i64 4, i1 false)
  %33 = getelementptr inbounds nuw %"class.clang::UsingDecl", ptr %20, i32 0, i32 2
  call void @llvm.memcpy.p0.p0.i64(ptr align 8 %33, ptr align 8 %9, i64 16, i1 false)
  %34 = getelementptr inbounds nuw %"class.clang::UsingDecl", ptr %20, i32 0, i32 3
  %35 = load ptr, ptr %12, align 8
  %36 = call noundef nonnull align 8 dereferenceable(8) ptr @_ZNK5clang19DeclarationNameInfo7getInfoEv(ptr noundef nonnull align 8 dereferenceable(24) %35)
  call void @llvm.memcpy.p0.p0.i64(ptr align 8 %34, ptr align 8 %36, i64 8, i1 false)
  %37 = load i8, ptr %13, align 1
  %38 = trunc i8 %37 to i1
  call void @_ZN5clang13BaseUsingDecl13setShadowFlagEb(ptr noundef nonnull align 8 dereferenceable(56) %20, i1 noundef zeroext %38)
  ret void
}

; Function Attrs: mustprogress nounwind uwtable
define dso_local noundef ptr @_ZN5clang9UsingDecl6CreateERNS_10ASTContextEPNS_11DeclContextENS_14SourceLocationENS_22NestedNameSpecifierLocERKNS_19DeclarationNameInfoEb(ptr noundef nonnull align 8 dereferenceable(23096) %0, ptr noundef %1, i32 %2, ptr %3, ptr %4, ptr noundef nonnull align 8 dereferenceable(24) %5, i1 noundef zeroext %6) #0 align 2 {
  %8 = alloca %"class.clang::SourceLocation", align 4
  %9 = alloca %"class.clang::NestedNameSpecifierLoc", align 8
  %10 = alloca ptr, align 8
  %11 = alloca ptr, align 8
  %12 = alloca ptr, align 8
  %13 = alloca i8, align 1
  %14 = alloca %"class.clang::SourceLocation", align 4
  %15 = alloca %"class.clang::NestedNameSpecifierLoc", align 8
  %16 = getelementptr inbounds nuw %"class.clang::SourceLocation", ptr %8, i32 0, i32 0
  store i32 %2, ptr %16, align 4
  %17 = getelementptr inbounds nuw { ptr, ptr }, ptr %9, i32 0, i32 0
  store ptr %3, ptr %17, align 8
  %18 = getelementptr inbounds nuw { ptr, ptr }, ptr %9, i32 0, i32 1
  store ptr %4, ptr %18, align 8
  store ptr %0, ptr %10, align 8
  store ptr %1, ptr %11, align 8
  store ptr %5, ptr %12, align 8
  %19 = zext i1 %6 to i8
  store i8 %19, ptr %13, align 1
  %20 = load ptr, ptr %10, align 8
  %21 = load ptr, ptr %11, align 8
  %22 = call noundef ptr @_ZN5clang4DeclnwEmRKNS_10ASTContextEPNS_11DeclContextEm(i64 noundef 88, ptr noundef nonnull align 8 dereferenceable(23096) %20, ptr noundef %21, i64 noundef 0)
  %23 = load ptr, ptr %11, align 8
  call void @llvm.memcpy.p0.p0.i64(ptr align 4 %14, ptr align 4 %8, i64 4, i1 false)
  call void @llvm.memcpy.p0.p0.i64(ptr align 8 %15, ptr align 8 %9, i64 16, i1 false)
  %24 = load ptr, ptr %12, align 8
  %25 = load i8, ptr %13, align 1
  %26 = trunc i8 %25 to i1
  %27 = getelementptr inbounds nuw %"class.clang::SourceLocation", ptr %14, i32 0, i32 0
  %28 = load i32, ptr %27, align 4
  %29 = getelementptr inbounds nuw { ptr, ptr }, ptr %15, i32 0, i32 0
  %30 = load ptr, ptr %29, align 8
  %31 = getelementptr inbounds nuw { ptr, ptr }, ptr %15, i32 0, i32 1
  %32 = load ptr, ptr %31, align 8
  call void @_ZN5clang9UsingDeclC2EPNS_11DeclContextENS_14SourceLocationENS_22NestedNameSpecifierLocERKNS_19DeclarationNameInfoEb(ptr noundef nonnull align 8 dereferenceable(88) %22, ptr noundef %23, i32 %28, ptr %30, ptr %32, ptr noundef nonnull align 8 dereferenceable(24) %24, i1 noundef zeroext %26)
  ret ptr %22
}