; Function Attrs: mustprogress nounwind uwtable
define dso_local noundef ptr @_ZN5clang9UsingDecl6CreateERNS_10ASTContextEPNS_11DeclContextENS_14SourceLocationENS_22NestedNameSpecifierLocERKNS_19DeclarationNameInfoEb(ptr noundef nonnull align 8 dereferenceable(23096) %0, ptr noundef %1, i32 %2, ptr %3, ptr %4, ptr noundef nonnull readonly align 8 captures(none) dereferenceable(24) %5, i1 noundef zeroext %6) local_unnamed_addr #1 align 2 {
  %8 = tail call noundef ptr @_ZN5clang4DeclnwEmRKNS_10ASTContextEPNS_11DeclContextEm(i64 noundef 88, ptr noundef nonnull align 8 dereferenceable(23096) %0, ptr noundef %1, i64 noundef 0) #25
  %9 = getelementptr inbounds nuw i8, ptr %5, i64 8
  %.sroa.0.0.copyload.i.i = load i32, ptr %9, align 8
  %.sroa.0.0.copyload.i8.i = load i64, ptr %5, align 8
  tail call void @_ZN5clang4DeclC2ENS0_4KindEPNS_11DeclContextENS_14SourceLocationE(ptr noundef nonnull align 8 dereferenceable(88) %8, i32 noundef 77, ptr noundef %1, i32 %.sroa.0.0.copyload.i.i)
  %10 = getelementptr inbounds nuw i8, ptr %8, i64 40
  store i64 %.sroa.0.0.copyload.i8.i, ptr %10, align 8
  %11 = getelementptr inbounds nuw i8, ptr %8, i64 48
  store i64 0, ptr %11, align 8
  store ptr getelementptr inbounds nuw inrange(-16, 104) (i8, ptr @_ZTVN5clang9UsingDeclE, i64 16), ptr %8, align 8
  %12 = getelementptr inbounds nuw i8, ptr %8, i64 56
  store i32 %2, ptr %12, align 8
  %13 = getelementptr inbounds nuw i8, ptr %8, i64 64
  store ptr %3, ptr %13, align 8
  %.sroa.2.0..sroa_idx.i = getelementptr inbounds nuw i8, ptr %8, i64 72
  store ptr %4, ptr %.sroa.2.0..sroa_idx.i, align 8
  %14 = getelementptr inbounds nuw i8, ptr %8, i64 80
  %15 = getelementptr inbounds nuw i8, ptr %5, i64 16
  %16 = load i64, ptr %15, align 8
  store i64 %16, ptr %14, align 8
  %17 = select i1 %6, i64 4, i64 0
  store i64 %17, ptr %11, align 8
  ret ptr %8
}